target datalayout = "e-m:e-p270:32:32-p271:32:32-p272:64:64-i64:64-i128:128-f80:128-n8:16:32:64-S128"
target triple = "x86_64-pc-linux-gnu"

%struct.dsa_st = type { i32, i32, %struct.ffc_params_st, ptr, ptr, i32, ptr, %struct.CRYPTO_REF_COUNT, %struct.crypto_ex_data_st, ptr, ptr, ptr, ptr, i64 }
%struct.ffc_params_st = type { ptr, ptr, ptr, ptr, ptr, i64, i32, i32, i32, i32, i32, ptr, ptr, i32 }
%struct.CRYPTO_REF_COUNT = type { i32 }
%struct.crypto_ex_data_st = type { ptr, ptr }
%struct.dsa_method = type { ptr, ptr, ptr, ptr, ptr, ptr, ptr, ptr, i32, ptr, ptr, ptr }

@.str = private unnamed_addr constant [32 x i8] c"../openssl/crypto/dsa/dsa_lib.c\00", align 1

; Function Attrs: inlinehint nounwind uwtable
define internal void @CRYPTO_FREE_REF(ptr noundef %0) #3 {
  %2 = alloca ptr, align 8
  store ptr %0, ptr %2, align 8, !tbaa !10
  ret void
}

; Function Attrs: inlinehint nounwind uwtable
define internal i32 @CRYPTO_DOWN_REF(ptr noundef %0, ptr noundef %1) #3 {
  %3 = alloca ptr, align 8
  %4 = alloca ptr, align 8
  %5 = alloca i32, align 4
  %6 = alloca i32, align 4
  store ptr %0, ptr %3, align 8, !tbaa !10
  store ptr %1, ptr %4, align 8, !tbaa !40
  %7 = load ptr, ptr %3, align 8, !tbaa !10
  %8 = getelementptr inbounds nuw %struct.CRYPTO_REF_COUNT, ptr %7, i32 0, i32 0
  store i32 1, ptr %5, align 4, !tbaa !8
  %9 = load i32, ptr %5, align 4
  %10 = atomicrmw sub ptr %8, i32 %9 release, align 4
  store i32 %10, ptr %6, align 4
  %11 = load i32, ptr %6, align 4, !tbaa !8
  %12 = sub nsw i32 %11, 1
  %13 = load ptr, ptr %4, align 8, !tbaa !40
  store i32 %12, ptr %13, align 4, !tbaa !8
  %14 = load ptr, ptr %4, align 8, !tbaa !40
  %15 = load i32, ptr %14, align 4, !tbaa !8
  %16 = icmp eq i32 %15, 0
  br i1 %16, label %17, label %18

17:                                               ; preds = %2
  fence acquire
  br label %18

18:                                               ; preds = %17, %2
  ret i32 1
}

; Function Attrs: nounwind uwtable
define void @DSA_free(ptr noundef %0) #0 {
  %2 = alloca ptr, align 8
  %3 = alloca i32, align 4
  %4 = alloca i32, align 4
  store ptr %0, ptr %2, align 8, !tbaa !3
  call void @llvm.lifetime.start.p0(i64 4, ptr %3) #4
  %5 = load ptr, ptr %2, align 8, !tbaa !3
  %6 = icmp eq ptr %5, null
  br i1 %6, label %7, label %8

7:                                                ; preds = %1
  store i32 1, ptr %4, align 4
  br label %57

8:                                                ; preds = %1
  %9 = load ptr, ptr %2, align 8, !tbaa !3
  %10 = getelementptr inbounds nuw %struct.dsa_st, ptr %9, i32 0, i32 7
  %11 = call i32 @CRYPTO_DOWN_REF(ptr noundef %10, ptr noundef %3)
  %12 = load i32, ptr %3, align 4, !tbaa !8
  %13 = icmp sgt i32 %12, 0
  br i1 %13, label %14, label %15

14:                                               ; preds = %8
  store i32 1, ptr %4, align 4
  br label %57

15:                                               ; preds = %8
  %16 = load ptr, ptr %2, align 8, !tbaa !3
  %17 = getelementptr inbounds nuw %struct.dsa_st, ptr %16, i32 0, i32 9
  %18 = load ptr, ptr %17, align 8, !tbaa !31
  %19 = icmp ne ptr %18, null
  br i1 %19, label %20, label %35

20:                                               ; preds = %15
  %21 = load ptr, ptr %2, align 8, !tbaa !3
  %22 = getelementptr inbounds nuw %struct.dsa_st, ptr %21, i32 0, i32 9
  %23 = load ptr, ptr %22, align 8, !tbaa !31
  %24 = getelementptr inbounds nuw %struct.dsa_method, ptr %23, i32 0, i32 7
  %25 = load ptr, ptr %24, align 8, !tbaa !32
  %26 = icmp ne ptr %25, null
  br i1 %26, label %27, label %35

27:                                               ; preds = %20
  %28 = load ptr, ptr %2, align 8, !tbaa !3
  %29 = getelementptr inbounds nuw %struct.dsa_st, ptr %28, i32 0, i32 9
  %30 = load ptr, ptr %29, align 8, !tbaa !31
  %31 = getelementptr inbounds nuw %struct.dsa_method, ptr %30, i32 0, i32 7
  %32 = load ptr, ptr %31, align 8, !tbaa !32
  %33 = load ptr, ptr %2, align 8, !tbaa !3
  %34 = call i32 %32(ptr noundef %33)
  br label %35

35:                                               ; preds = %27, %20, %15
  %36 = load ptr, ptr %2, align 8, !tbaa !3
  %37 = getelementptr inbounds nuw %struct.dsa_st, ptr %36, i32 0, i32 10
  %38 = load ptr, ptr %37, align 8, !tbaa !29
  %39 = call i32 @ENGINE_finish(ptr noundef %38)
  %40 = load ptr, ptr %2, align 8, !tbaa !3
  %41 = load ptr, ptr %2, align 8, !tbaa !3
  %42 = getelementptr inbounds nuw %struct.dsa_st, ptr %41, i32 0, i32 8
  call void @CRYPTO_free_ex_data(i32 noundef 7, ptr noundef %40, ptr noundef %42)
  %43 = load ptr, ptr %2, align 8, !tbaa !3
  %44 = getelementptr inbounds nuw %struct.dsa_st, ptr %43, i32 0, i32 11
  %45 = load ptr, ptr %44, align 8, !tbaa !37
  call void @CRYPTO_THREAD_lock_free(ptr noundef %45)
  %46 = load ptr, ptr %2, align 8, !tbaa !3
  %47 = getelementptr inbounds nuw %struct.dsa_st, ptr %46, i32 0, i32 7
  call void @CRYPTO_FREE_REF(ptr noundef %47)
  %48 = load ptr, ptr %2, align 8, !tbaa !3
  %49 = getelementptr inbounds nuw %struct.dsa_st, ptr %48, i32 0, i32 2
  call void @ossl_ffc_params_cleanup(ptr noundef %49)
  %50 = load ptr, ptr %2, align 8, !tbaa !3
  %51 = getelementptr inbounds nuw %struct.dsa_st, ptr %50, i32 0, i32 3
  %52 = load ptr, ptr %51, align 8, !tbaa !15
  call void @BN_clear_free(ptr noundef %52)
  %53 = load ptr, ptr %2, align 8, !tbaa !3
  %54 = getelementptr inbounds nuw %struct.dsa_st, ptr %53, i32 0, i32 4
  %55 = load ptr, ptr %54, align 8, !tbaa !27
  call void @BN_clear_free(ptr noundef %55)
  %56 = load ptr, ptr %2, align 8, !tbaa !3
  call void @CRYPTO_free(ptr noundef %56, ptr noundef @.str, i32 noundef 242)
  store i32 0, ptr %4, align 4
  br label %57

57:                                               ; preds = %35, %14, %7
  call void @llvm.lifetime.end.p0(i64 4, ptr %3) #4
  %58 = load i32, ptr %4, align 4
  switch i32 %58, label %60 [
    i32 0, label %59
    i32 1, label %59
  ]

59:                                               ; preds = %57, %57
  ret void

60:                                               ; preds = %57
  unreachable
}