; Function Attrs: nounwind uwtable
define void @DSA_free(ptr noundef %0) local_unnamed_addr #0 {
  %2 = icmp eq ptr %0, null
  br i1 %2, label %28, label %3

3:                                                ; preds = %1
  %4 = getelementptr inbounds nuw i8, ptr %0, i64 136
  %5 = atomicrmw sub ptr %4, i32 1 release, align 4
  %6 = icmp eq i32 %5, 1
  br i1 %6, label %CRYPTO_DOWN_REF.exit.thread, label %CRYPTO_DOWN_REF.exit

CRYPTO_DOWN_REF.exit.thread:                      ; preds = %3
  fence acquire
  br label %8

CRYPTO_DOWN_REF.exit:                             ; preds = %3
  %7 = icmp sgt i32 %5, 1
  br i1 %7, label %28, label %8

8:                                                ; preds = %CRYPTO_DOWN_REF.exit.thread, %CRYPTO_DOWN_REF.exit
  %9 = getelementptr inbounds nuw i8, ptr %0, i64 160
  %10 = load ptr, ptr %9, align 8, !tbaa !23
  %.not = icmp eq ptr %10, null
  br i1 %.not, label %16, label %11

11:                                               ; preds = %8
  %12 = getelementptr inbounds nuw i8, ptr %10, i64 56
  %13 = load ptr, ptr %12, align 8, !tbaa !24
  %.not17 = icmp eq ptr %13, null
  br i1 %.not17, label %16, label %14

14:                                               ; preds = %11
  %15 = tail call i32 %13(ptr noundef nonnull %0) #7
  br label %16

16:                                               ; preds = %14, %11, %8
  %17 = getelementptr inbounds nuw i8, ptr %0, i64 168
  %18 = load ptr, ptr %17, align 8, !tbaa !22
  %19 = tail call i32 @ENGINE_finish(ptr noundef %18) #7
  %20 = getelementptr inbounds nuw i8, ptr %0, i64 144
  tail call void @CRYPTO_free_ex_data(i32 noundef 7, ptr noundef nonnull %0, ptr noundef nonnull %20) #7
  %21 = getelementptr inbounds nuw i8, ptr %0, i64 176
  %22 = load ptr, ptr %21, align 8, !tbaa !27
  tail call void @CRYPTO_THREAD_lock_free(ptr noundef %22) #7
  %23 = getelementptr inbounds nuw i8, ptr %0, i64 8
  tail call void @ossl_ffc_params_cleanup(ptr noundef nonnull %23) #7
  %24 = getelementptr inbounds nuw i8, ptr %0, i64 104
  %25 = load ptr, ptr %24, align 8, !tbaa !3
  tail call void @BN_clear_free(ptr noundef %25) #7
  %26 = getelementptr inbounds nuw i8, ptr %0, i64 112
  %27 = load ptr, ptr %26, align 8, !tbaa !20
  tail call void @BN_clear_free(ptr noundef %27) #7
  tail call void @CRYPTO_free(ptr noundef nonnull %0, ptr noundef nonnull @.str, i32 noundef 242) #7
  br label %28

28:                                               ; preds = %CRYPTO_DOWN_REF.exit, %1, %16
  ret void
}